target datalayout = "e-m:e-p270:32:32-p271:32:32-p272:64:64-i64:64-i128:128-f80:128-n8:16:32:64-S128"
target triple = "x86_64-pc-linux-gnu"

; Function Attrs: nounwind uwtable
define internal zeroext i8 @enableCollection(ptr noundef %0, ptr noundef %1) #0 {
  %3 = alloca i8, align 1
  %4 = alloca ptr, align 8
  %5 = alloca ptr, align 8
  %6 = alloca i32, align 4
  %7 = alloca i64, align 8
  store ptr %0, ptr %4, align 8
  store ptr %1, ptr %5, align 8
  %8 = load ptr, ptr %4, align 8
  %9 = call i64 @inStream_readObjectID(ptr noundef %8)
  store i64 %9, ptr %7, align 8
  %10 = load ptr, ptr %4, align 8
  %11 = call zeroext i16 @inStream_error(ptr noundef %10)
  %12 = icmp ne i16 %11, 0
  br i1 %12, label %13, label %14

13:                                               ; preds = %2
  store i8 1, ptr %3, align 1
  br label %24

14:                                               ; preds = %2
  %15 = load i64, ptr %7, align 8
  %16 = call i32 @commonRef_unpin(i64 noundef %15)
  store i32 %16, ptr %6, align 4
  %17 = load i32, ptr %6, align 4
  %18 = icmp ne i32 %17, 0
  br i1 %18, label %19, label %23

19:                                               ; preds = %14
  %20 = load ptr, ptr %5, align 8
  %21 = load i32, ptr %6, align 4
  %22 = call zeroext i16 @map2jdwpError(i32 noundef %21)
  call void @outStream_setError(ptr noundef %20, i16 noundef zeroext %22)
  br label %23

23:                                               ; preds = %19, %14
  store i8 1, ptr %3, align 1
  br label %24

24:                                               ; preds = %23, %13
  %25 = load i8, ptr %3, align 1
  ret i8 %25
}