; Function Attrs: nounwind uwtable
define internal noundef zeroext i8 @enableCollection(ptr noundef %0, ptr noundef %1) #0 {
  %3 = tail call i64 @inStream_readObjectID(ptr noundef %0) #3
  %4 = tail call zeroext i16 @inStream_error(ptr noundef %0) #3
  %.not = icmp eq i16 %4, 0
  br i1 %.not, label %5, label %9

5:                                                ; preds = %2
  %6 = tail call i32 @commonRef_unpin(i64 noundef %3) #3
  %.not6 = icmp eq i32 %6, 0
  br i1 %.not6, label %9, label %7

7:                                                ; preds = %5
  %8 = tail call zeroext i16 @map2jdwpError(i32 noundef %6) #3
  tail call void @outStream_setError(ptr noundef %1, i16 noundef zeroext %8) #3
  br label %9

9:                                                ; preds = %5, %7, %2
  ret i8 1
}